target datalayout = "e-m:e-p270:32:32-p271:32:32-p272:64:64-i64:64-i128:128-f80:128-n8:16:32:64-S128"
target triple = "x86_64-pc-linux-gnu"

%struct.SDL_FPoint = type { float, float }
%struct.SDL_FColor = type { float, float, float, float }
%struct.SDL_RenderCommand = type { i32, %union.anon, ptr }
%union.anon = type { %struct.anon.1 }
%struct.anon.1 = type { i64, i64, float, %struct.SDL_FColor, i32, ptr, i32, i32, i32, ptr }

; Function Attrs: nounwind uwtable
define internal zeroext i1 @GL_QueueDrawLines(ptr noundef %0, ptr noundef %1, ptr noundef %2, i32 noundef %3) #0 {
  %5 = alloca i1, align 1
  %6 = alloca ptr, align 8
  %7 = alloca ptr, align 8
  %8 = alloca ptr, align 8
  %9 = alloca i32, align 4
  %10 = alloca i32, align 4
  %11 = alloca float, align 4
  %12 = alloca float, align 4
  %13 = alloca i64, align 8
  %14 = alloca ptr, align 8
  %15 = alloca i32, align 4
  %16 = alloca float, align 4
  %17 = alloca float, align 4
  %18 = alloca float, align 4
  %19 = alloca float, align 4
  %20 = alloca float, align 4
  %21 = alloca float, align 4
  %22 = alloca float, align 4
  store ptr %0, ptr %6, align 8
  store ptr %1, ptr %7, align 8
  store ptr %2, ptr %8, align 8
  store i32 %3, ptr %9, align 4
  call void @llvm.lifetime.start.p0(i64 4, ptr %10) #4
  call void @llvm.lifetime.start.p0(i64 4, ptr %11) #4
  call void @llvm.lifetime.start.p0(i64 4, ptr %12) #4
  call void @llvm.lifetime.start.p0(i64 8, ptr %13) #4
  %23 = load i32, ptr %9, align 4
  %24 = sext i32 %23 to i64
  %25 = mul i64 8, %24
  store i64 %25, ptr %13, align 8
  call void @llvm.lifetime.start.p0(i64 8, ptr %14) #4
  %26 = load ptr, ptr %6, align 8
  %27 = load i64, ptr %13, align 8
  %28 = load ptr, ptr %7, align 8
  %29 = getelementptr inbounds nuw %struct.SDL_RenderCommand, ptr %28, i32 0, i32 1
  %30 = getelementptr inbounds nuw %struct.anon.1, ptr %29, i32 0, i32 0
  %31 = call ptr @SDL_AllocateRenderVertices(ptr noundef %26, i64 noundef %27, i64 noundef 0, ptr noundef %30)
  store ptr %31, ptr %14, align 8
  %32 = load ptr, ptr %14, align 8
  %33 = icmp ne ptr %32, null
  br i1 %33, label %35, label %34

34:                                               ; preds = %4
  store i1 false, ptr %5, align 1
  store i32 1, ptr %15, align 4
  br label %103

35:                                               ; preds = %4
  %36 = load i32, ptr %9, align 4
  %37 = sext i32 %36 to i64
  %38 = load ptr, ptr %7, align 8
  %39 = getelementptr inbounds nuw %struct.SDL_RenderCommand, ptr %38, i32 0, i32 1
  %40 = getelementptr inbounds nuw %struct.anon.1, ptr %39, i32 0, i32 1
  store i64 %37, ptr %40, align 8
  %41 = load ptr, ptr %8, align 8
  %42 = getelementptr inbounds nuw %struct.SDL_FPoint, ptr %41, i32 0, i32 0
  %43 = load float, ptr %42, align 4
  %44 = fadd float 5.000000e-01, %43
  store float %44, ptr %11, align 4
  %45 = load ptr, ptr %8, align 8
  %46 = getelementptr inbounds nuw %struct.SDL_FPoint, ptr %45, i32 0, i32 1
  %47 = load float, ptr %46, align 4
  %48 = fadd float 5.000000e-01, %47
  store float %48, ptr %12, align 4
  %49 = load float, ptr %11, align 4
  %50 = load ptr, ptr %14, align 8
  %51 = getelementptr inbounds nuw float, ptr %50, i32 1
  store ptr %51, ptr %14, align 8
  store float %49, ptr %50, align 4
  %52 = load float, ptr %12, align 4
  %53 = load ptr, ptr %14, align 8
  %54 = getelementptr inbounds nuw float, ptr %53, i32 1
  store ptr %54, ptr %14, align 8
  store float %52, ptr %53, align 4
  store i32 1, ptr %10, align 4
  br label %55

55:                                               ; preds = %99, %35
  %56 = load i32, ptr %10, align 4
  %57 = load i32, ptr %9, align 4
  %58 = icmp slt i32 %56, %57
  br i1 %58, label %59, label %102

59:                                               ; preds = %55
  call void @llvm.lifetime.start.p0(i64 4, ptr %16) #4
  %60 = load float, ptr %11, align 4
  store float %60, ptr %16, align 4
  call void @llvm.lifetime.start.p0(i64 4, ptr %17) #4
  %61 = load float, ptr %12, align 4
  store float %61, ptr %17, align 4
  call void @llvm.lifetime.start.p0(i64 4, ptr %18) #4
  %62 = load ptr, ptr %8, align 8
  %63 = load i32, ptr %10, align 4
  %64 = sext i32 %63 to i64
  %65 = getelementptr inbounds %struct.SDL_FPoint, ptr %62, i64 %64
  %66 = getelementptr inbounds nuw %struct.SDL_FPoint, ptr %65, i32 0, i32 0
  %67 = load float, ptr %66, align 4
  %68 = fadd float %67, 5.000000e-01
  store float %68, ptr %18, align 4
  call void @llvm.lifetime.start.p0(i64 4, ptr %19) #4
  %69 = load ptr, ptr %8, align 8
  %70 = load i32, ptr %10, align 4
  %71 = sext i32 %70 to i64
  %72 = getelementptr inbounds %struct.SDL_FPoint, ptr %69, i64 %71
  %73 = getelementptr inbounds nuw %struct.SDL_FPoint, ptr %72, i32 0, i32 1
  %74 = load float, ptr %73, align 4
  %75 = fadd float %74, 5.000000e-01
  store float %75, ptr %19, align 4
  call void @llvm.lifetime.start.p0(i64 4, ptr %20) #4
  %76 = load float, ptr %18, align 4
  %77 = load float, ptr %16, align 4
  %78 = fsub float %76, %77
  store float %78, ptr %20, align 4
  call void @llvm.lifetime.start.p0(i64 4, ptr %21) #4
  %79 = load float, ptr %19, align 4
  %80 = load float, ptr %17, align 4
  %81 = fsub float %79, %80
  store float %81, ptr %21, align 4
  call void @llvm.lifetime.start.p0(i64 4, ptr %22) #4
  %82 = load float, ptr %21, align 4
  %83 = load float, ptr %20, align 4
  %84 = call float @SDL_atan2f_REAL(float noundef %82, float noundef %83)
  store float %84, ptr %22, align 4
  %85 = load float, ptr %18, align 4
  %86 = load float, ptr %22, align 4
  %87 = call float @SDL_cosf_REAL(float noundef %86)
  %88 = call float @llvm.fmuladd.f32(float %87, float 2.500000e-01, float %85)
  store float %88, ptr %11, align 4
  %89 = load float, ptr %19, align 4
  %90 = load float, ptr %22, align 4
  %91 = call float @SDL_sinf_REAL(float noundef %90)
  %92 = call float @llvm.fmuladd.f32(float %91, float 2.500000e-01, float %89)
  store float %92, ptr %12, align 4
  %93 = load float, ptr %11, align 4
  %94 = load ptr, ptr %14, align 8
  %95 = getelementptr inbounds nuw float, ptr %94, i32 1
  store ptr %95, ptr %14, align 8
  store float %93, ptr %94, align 4
  %96 = load float, ptr %12, align 4
  %97 = load ptr, ptr %14, align 8
  %98 = getelementptr inbounds nuw float, ptr %97, i32 1
  store ptr %98, ptr %14, align 8
  store float %96, ptr %97, align 4
  call void @llvm.lifetime.end.p0(i64 4, ptr %22) #4
  call void @llvm.lifetime.end.p0(i64 4, ptr %21) #4
  call void @llvm.lifetime.end.p0(i64 4, ptr %20) #4
  call void @llvm.lifetime.end.p0(i64 4, ptr %19) #4
  call void @llvm.lifetime.end.p0(i64 4, ptr %18) #4
  call void @llvm.lifetime.end.p0(i64 4, ptr %17) #4
  call void @llvm.lifetime.end.p0(i64 4, ptr %16) #4
  br label %99

99:                                               ; preds = %59
  %100 = load i32, ptr %10, align 4
  %101 = add nsw i32 %100, 1
  store i32 %101, ptr %10, align 4
  br label %55, !llvm.loop !8

102:                                              ; preds = %55
  store i1 true, ptr %5, align 1
  store i32 1, ptr %15, align 4
  br label %103

103:                                              ; preds = %102, %34
  call void @llvm.lifetime.end.p0(i64 8, ptr %14) #4
  call void @llvm.lifetime.end.p0(i64 8, ptr %13) #4
  call void @llvm.lifetime.end.p0(i64 4, ptr %12) #4
  call void @llvm.lifetime.end.p0(i64 4, ptr %11) #4
  call void @llvm.lifetime.end.p0(i64 4, ptr %10) #4
  %104 = load i1, ptr %5, align 1
  ret i1 %104
}