; Function Attrs: nounwind uwtable
define internal noundef zeroext i1 @GL_QueueDrawLines(ptr noundef %0, ptr noundef %1, ptr noundef readonly captures(none) %2, i32 noundef %3) #0 {
  %5 = sext i32 %3 to i64
  %6 = shl nsw i64 %5, 3
  %7 = getelementptr inbounds nuw i8, ptr %1, i64 8
  %8 = tail call ptr @SDL_AllocateRenderVertices(ptr noundef %0, i64 noundef %6, i64 noundef 0, ptr noundef nonnull %7) #7
  %.not = icmp ne ptr %8, null
  br i1 %.not, label %9, label %.loopexit

9:                                                ; preds = %4
  %10 = getelementptr inbounds nuw i8, ptr %1, i64 16
  store i64 %5, ptr %10, align 8
  %11 = load float, ptr %2, align 4
  %12 = fadd float %11, 5.000000e-01
  %13 = getelementptr inbounds nuw i8, ptr %2, i64 4
  %14 = load float, ptr %13, align 4
  %15 = fadd float %14, 5.000000e-01
  %16 = getelementptr inbounds nuw i8, ptr %8, i64 4
  store float %12, ptr %8, align 4
  store float %15, ptr %16, align 4
  %17 = icmp sgt i32 %3, 1
  br i1 %17, label %.lr.ph.preheader, label %.loopexit

.lr.ph.preheader:                                 ; preds = %9
  %wide.trip.count = zext nneg i32 %3 to i64
  br label %.lr.ph

.lr.ph:                                           ; preds = %.lr.ph.preheader, %.lr.ph
  %indvars.iv = phi i64 [ 1, %.lr.ph.preheader ], [ %indvars.iv.next, %.lr.ph ]
  %.03743 = phi float [ %12, %.lr.ph.preheader ], [ %28, %.lr.ph ]
  %.03842 = phi float [ %15, %.lr.ph.preheader ], [ %30, %.lr.ph ]
  %.pn41 = phi ptr [ %8, %.lr.ph.preheader ], [ %.039, %.lr.ph ]
  %.039 = getelementptr inbounds nuw i8, ptr %.pn41, i64 8
  %18 = getelementptr inbounds nuw %struct.SDL_FPoint, ptr %2, i64 %indvars.iv
  %19 = load float, ptr %18, align 4
  %20 = fadd float %19, 5.000000e-01
  %21 = getelementptr inbounds nuw i8, ptr %18, i64 4
  %22 = load float, ptr %21, align 4
  %23 = fadd float %22, 5.000000e-01
  %24 = fsub float %20, %.03743
  %25 = fsub float %23, %.03842
  %26 = tail call float @SDL_atan2f_REAL(float noundef %25, float noundef %24) #7
  %27 = tail call float @SDL_cosf_REAL(float noundef %26) #7
  %28 = tail call float @llvm.fmuladd.f32(float %27, float 2.500000e-01, float %20)
  %29 = tail call float @SDL_sinf_REAL(float noundef %26) #7
  %30 = tail call float @llvm.fmuladd.f32(float %29, float 2.500000e-01, float %23)
  %31 = getelementptr inbounds nuw i8, ptr %.pn41, i64 12
  store float %28, ptr %.039, align 4
  store float %30, ptr %31, align 4
  %indvars.iv.next = add nuw nsw i64 %indvars.iv, 1
  %exitcond.not = icmp eq i64 %indvars.iv.next, %wide.trip.count
  br i1 %exitcond.not, label %.loopexit, label %.lr.ph, !llvm.loop !8

.loopexit:                                        ; preds = %.lr.ph, %9, %4
  ret i1 %.not
}